target datalayout = "e-m:e-p270:32:32-p271:32:32-p272:64:64-i64:64-i128:128-f80:128-n8:16:32:64-S128"
target triple = "x86_64-unknown-linux-gnu"

%"class.std::shared_ptr.3" = type { %"class.std::__shared_ptr.4" }
%"class.std::__shared_ptr.4" = type { ptr, %"class.std::__shared_count" }
%"class.std::__shared_count" = type { ptr }
%"class.node::PerProcessOptions" = type { %"class.node::Options", %"class.std::shared_ptr", %"class.std::__cxx11::basic_string", %"class.std::__cxx11::basic_string", %"class.std::__cxx11::basic_string", i64, i8, i8, %"class.std::__cxx11::basic_string", i8, %"class.std::__cxx11::basic_string", %"class.std::vector", i8, i8, i8, i8, %"class.std::__cxx11::basic_string", %"class.std::__cxx11::basic_string", %"class.std::__cxx11::basic_string", %"class.std::__cxx11::basic_string", i64, i64, i8, i8, i8, i8, i8, i8, i8, i8, i8, %"class.std::__cxx11::basic_string", %"class.std::__cxx11::basic_string", %"class.std::__cxx11::basic_string", i8, %"class.std::vector" }
%"class.node::Options" = type { ptr }
%"class.std::shared_ptr" = type { %"class.std::__shared_ptr" }
%"class.std::__shared_ptr" = type { ptr, %"class.std::__shared_count" }
%"class.std::__cxx11::basic_string" = type { %"struct.std::__cxx11::basic_string<char>::_Alloc_hider", i64, %union.anon }
%"struct.std::__cxx11::basic_string<char>::_Alloc_hider" = type { ptr }
%union.anon = type { i64, [8 x i8] }
%"class.std::vector" = type { %"struct.std::_Vector_base" }
%"struct.std::_Vector_base" = type { %"struct.std::_Vector_base<std::__cxx11::basic_string<char>, std::allocator<std::__cxx11::basic_string<char>>>::_Vector_impl" }
%"struct.std::_Vector_base<std::__cxx11::basic_string<char>, std::allocator<std::__cxx11::basic_string<char>>>::_Vector_impl" = type { %"struct.std::_Vector_base<std::__cxx11::basic_string<char>, std::allocator<std::__cxx11::basic_string<char>>>::_Vector_impl_data" }
%"struct.std::_Vector_base<std::__cxx11::basic_string<char>, std::allocator<std::__cxx11::basic_string<char>>>::_Vector_impl_data" = type { ptr, ptr, ptr }

@_ZN4node11per_process11cli_optionsE = external global %"class.std::shared_ptr.3", align 8
@.str = private unnamed_addr constant [5 x i8] c"fips\00", align 1

; Function Attrs: mustprogress nounwind uwtable
define linkonce_odr dso_local noundef ptr @_ZNKSt12__shared_ptrIN4node17PerProcessOptionsELN9__gnu_cxx12_Lock_policyE2EE3getEv(ptr noundef nonnull align 8 dereferenceable(16) %this) #4 comdat align 2 {
entry:
  %this.addr = alloca ptr, align 8
  store ptr %this, ptr %this.addr, align 8
  %this1 = load ptr, ptr %this.addr, align 8
  %_M_ptr = getelementptr inbounds %"class.std::__shared_ptr.4", ptr %this1, i32 0, i32 0
  %0 = load ptr, ptr %_M_ptr, align 8
  ret ptr %0
}

; Function Attrs: mustprogress nounwind uwtable
define linkonce_odr dso_local noundef ptr @_ZNKSt19__shared_ptr_accessIN4node17PerProcessOptionsELN9__gnu_cxx12_Lock_policyE2ELb0ELb0EE6_M_getEv(ptr noundef nonnull align 1 dereferenceable(1) %this) #4 comdat align 2 {
entry:
  %this.addr = alloca ptr, align 8
  store ptr %this, ptr %this.addr, align 8
  %this1 = load ptr, ptr %this.addr, align 8
  %call = call noundef ptr @_ZNKSt12__shared_ptrIN4node17PerProcessOptionsELN9__gnu_cxx12_Lock_policyE2EE3getEv(ptr noundef nonnull align 8 dereferenceable(16) %this1) #3
  ret ptr %call
}

; Function Attrs: mustprogress nounwind uwtable
define linkonce_odr dso_local noundef ptr @_ZNKSt19__shared_ptr_accessIN4node17PerProcessOptionsELN9__gnu_cxx12_Lock_policyE2ELb0ELb0EEptEv(ptr noundef nonnull align 1 dereferenceable(1) %this) #4 comdat align 2 {
entry:
  %this.addr = alloca ptr, align 8
  store ptr %this, ptr %this.addr, align 8
  %this1 = load ptr, ptr %this.addr, align 8
  %call = call noundef ptr @_ZNKSt19__shared_ptr_accessIN4node17PerProcessOptionsELN9__gnu_cxx12_Lock_policyE2ELb0ELb0EE6_M_getEv(ptr noundef nonnull align 1 dereferenceable(1) %this1) #3
  ret ptr %call
}

; Function Attrs: mustprogress nounwind uwtable
define dso_local noundef zeroext i1 @_ZN4node6crypto18ProcessFipsOptionsEv() #4 {
entry:
  %retval = alloca i1, align 1
  %fips_provider = alloca ptr, align 8
  %call = call noundef ptr @_ZNKSt19__shared_ptr_accessIN4node17PerProcessOptionsELN9__gnu_cxx12_Lock_policyE2ELb0ELb0EEptEv(ptr noundef nonnull align 1 dereferenceable(1) @_ZN4node11per_process11cli_optionsE) #3
  %enable_fips_crypto = getelementptr inbounds %"class.node::PerProcessOptions", ptr %call, i32 0, i32 25
  %0 = load i8, ptr %enable_fips_crypto, align 1
  %tobool = trunc i8 %0 to i1
  br i1 %tobool, label %if.then, label %lor.lhs.false

lor.lhs.false:                                    ; preds = %entry
  %call1 = call noundef ptr @_ZNKSt19__shared_ptr_accessIN4node17PerProcessOptionsELN9__gnu_cxx12_Lock_policyE2ELb0ELb0EEptEv(ptr noundef nonnull align 1 dereferenceable(1) @_ZN4node11per_process11cli_optionsE) #3
  %force_fips_crypto = getelementptr inbounds %"class.node::PerProcessOptions", ptr %call1, i32 0, i32 26
  %1 = load i8, ptr %force_fips_crypto, align 4
  %tobool2 = trunc i8 %1 to i1
  br i1 %tobool2, label %if.then, label %if.end10

if.then:                                          ; preds = %lor.lhs.false, %entry
  %call3 = call ptr @OSSL_PROVIDER_load(ptr noundef null, ptr noundef @.str)
  store ptr %call3, ptr %fips_provider, align 8
  %2 = load ptr, ptr %fips_provider, align 8
  %cmp = icmp eq ptr %2, null
  br i1 %cmp, label %if.then4, label %if.end

if.then4:                                         ; preds = %if.then
  store i1 false, ptr %retval, align 1
  br label %return

if.end:                                           ; preds = %if.then
  %3 = load ptr, ptr %fips_provider, align 8
  %call5 = call i32 @OSSL_PROVIDER_unload(ptr noundef %3)
  %call6 = call i32 @EVP_default_properties_enable_fips(ptr noundef null, i32 noundef 1)
  %tobool7 = icmp ne i32 %call6, 0
  br i1 %tobool7, label %land.rhs, label %land.end

land.rhs:                                         ; preds = %if.end
  %call8 = call i32 @EVP_default_properties_is_fips_enabled(ptr noundef null)
  %tobool9 = icmp ne i32 %call8, 0
  br label %land.end

land.end:                                         ; preds = %land.rhs, %if.end
  %4 = phi i1 [ false, %if.end ], [ %tobool9, %land.rhs ]
  store i1 %4, ptr %retval, align 1
  br label %return

if.end10:                                         ; preds = %lor.lhs.false
  store i1 true, ptr %retval, align 1
  br label %return

return:                                           ; preds = %if.end10, %land.end, %if.then4
  %5 = load i1, ptr %retval, align 1
  ret i1 %5
}