; Function Attrs: mustprogress nounwind uwtable
define dso_local noundef zeroext i1 @_ZN4node6crypto18ProcessFipsOptionsEv() local_unnamed_addr #4 {
entry:
  %0 = load ptr, ptr @_ZN4node11per_process11cli_optionsE, align 8
  %enable_fips_crypto = getelementptr inbounds i8, ptr %0, i64 387
  %1 = load i8, ptr %enable_fips_crypto, align 1
  %2 = and i8 %1, 1
  %tobool.not = icmp eq i8 %2, 0
  br i1 %tobool.not, label %lor.lhs.false, label %if.then

lor.lhs.false:                                    ; preds = %entry
  %force_fips_crypto = getelementptr inbounds i8, ptr %0, i64 388
  %3 = load i8, ptr %force_fips_crypto, align 4
  %4 = and i8 %3, 1
  %tobool2.not = icmp eq i8 %4, 0
  br i1 %tobool2.not, label %return, label %if.then

if.then:                                          ; preds = %lor.lhs.false, %entry
  %call3 = tail call ptr @OSSL_PROVIDER_load(ptr noundef null, ptr noundef nonnull @.str) #25
  %cmp = icmp eq ptr %call3, null
  br i1 %cmp, label %return, label %if.end

if.end:                                           ; preds = %if.then
  %call5 = tail call i32 @OSSL_PROVIDER_unload(ptr noundef nonnull %call3) #25
  %call6 = tail call i32 @EVP_default_properties_enable_fips(ptr noundef null, i32 noundef 1) #25
  %tobool7.not = icmp eq i32 %call6, 0
  br i1 %tobool7.not, label %return, label %land.rhs

land.rhs:                                         ; preds = %if.end
  %call8 = tail call i32 @EVP_default_properties_is_fips_enabled(ptr noundef null) #25
  %tobool9 = icmp ne i32 %call8, 0
  br label %return

return:                                           ; preds = %lor.lhs.false, %if.end, %land.rhs, %if.then
  %retval.0 = phi i1 [ false, %if.then ], [ false, %if.end ], [ %tobool9, %land.rhs ], [ true, %lor.lhs.false ]
  ret i1 %retval.0
}